; Function Attrs: mustprogress nounwind uwtable
define internal fastcc void @"_ZN7FinallyIZN3nix12FileTransfer8downloadEONS0_19FileTransferRequestERNS0_4SinkESt8functionIFvNS0_18FileTransferResultEEEE3$_2ED2Ev"(ptr %.0.val.0.val) unnamed_addr #5 align 2 personality ptr @__gxx_personality_v0 {
  %1 = tail call noundef i32 @pthread_mutex_lock(ptr noundef nonnull %.0.val.0.val) #32, !noalias !36
  %.not.i.i.i.i.i.i = icmp eq i32 %1, 0
  br i1 %.not.i.i.i.i.i.i, label %3, label %2

2:                                                ; preds = %0
  invoke void @_ZSt20__throw_system_errori(i32 noundef %1) #37
          to label %.noexc unwind label %7

.noexc:                                           ; preds = %2
  unreachable

3:                                                ; preds = %0
  %4 = getelementptr inbounds i8, ptr %.0.val.0.val, i64 40
  store i8 1, ptr %4, align 8
  %5 = getelementptr inbounds i8, ptr %.0.val.0.val, i64 136
  tail call void @_ZNSt18condition_variable10notify_oneEv(ptr noundef nonnull align 8 dereferenceable(48) %5) #32
  %6 = tail call noundef i32 @pthread_mutex_unlock(ptr noundef nonnull %.0.val.0.val) #32
  ret void

7:                                                ; preds = %2
  %8 = landingpad { ptr, i32 }
          catch ptr null
  %9 = extractvalue { ptr, i32 } %8, 0
  tail call void @__clang_call_terminate(ptr %9) #33
  unreachable
}